target datalayout = "e-m:e-p270:32:32-p271:32:32-p272:64:64-i64:64-i128:128-f80:128-n8:16:32:64-S128"
target triple = "x86_64-pc-linux-gnu"

%struct.Curl_cfilter = type { ptr, ptr, ptr, ptr, i32, i8 }
%struct.connectdata = type { %struct.Curl_llist_element, ptr, ptr, i64, ptr, ptr, %struct.hostname, ptr, ptr, %struct.hostname, %struct.proxy_info, %struct.proxy_info, [46 x i8], ptr, ptr, ptr, ptr, ptr, %struct.curltime, %struct.curltime, %struct.curltime, [2 x i32], [2 x ptr], [2 x ptr], [2 x ptr], %struct.ssl_primary_config, %struct.ssl_primary_config, %struct.ConnectBits, ptr, ptr, %struct.curltime, i32, i32, %struct.Curl_llist, ptr, ptr, i32, i32, %struct.ntlmdata, %struct.ntlmdata, %union.anon, ptr, ptr, i16, i32, i32, i32, i32, i32, i16, i16, i8, i8, i8, i8, i8, i8, i8 }
%struct.Curl_llist_element = type { ptr, ptr, ptr }
%struct.hostname = type { ptr, ptr, ptr, ptr }
%struct.proxy_info = type { %struct.hostname, i32, i8, ptr, ptr }
%struct.ssl_primary_config = type { ptr, ptr, ptr, ptr, ptr, ptr, ptr, ptr, ptr, ptr, ptr, ptr, i8, i32, i8, i8 }
%struct.ConnectBits = type { i32 }
%struct.curltime = type { i64, i32 }
%struct.Curl_llist = type { ptr, ptr, ptr, i64 }
%struct.ntlmdata = type { i32, [8 x i8], i32, ptr }
%union.anon = type { %struct.ftp_conn }
%struct.ftp_conn = type { %struct.pingpong, ptr, ptr, ptr, ptr, ptr, ptr, ptr, i8, i64, ptr, i64, i32, i32, i32, i32, i32, i16, i8, i8, i8, i8, i8 }
%struct.pingpong = type { i64, i8, ptr, i64, i64, %struct.curltime, i64, %struct.dynbuf, %struct.dynbuf, i64, i64, ptr, ptr }
%struct.dynbuf = type { ptr, i64, i64, i64 }

; Function Attrs: nounwind uwtable
define dso_local i32 @Curl_http_proxy_get_destination(ptr noundef %0, ptr noundef %1, ptr noundef %2, ptr noundef %3) #0 {
  %5 = alloca ptr, align 8
  %6 = alloca ptr, align 8
  %7 = alloca ptr, align 8
  %8 = alloca ptr, align 8
  store ptr %0, ptr %5, align 8
  store ptr %1, ptr %6, align 8
  store ptr %2, ptr %7, align 8
  store ptr %3, ptr %8, align 8
  br label %9

9:                                                ; preds = %4
  br label %10

10:                                               ; preds = %9
  br label %11

11:                                               ; preds = %10
  br label %12

12:                                               ; preds = %11
  %13 = load ptr, ptr %5, align 8
  %14 = getelementptr inbounds %struct.Curl_cfilter, ptr %13, i32 0, i32 3
  %15 = load ptr, ptr %14, align 8
  %16 = getelementptr inbounds %struct.connectdata, ptr %15, i32 0, i32 27
  %17 = load i32, ptr %16, align 8
  %18 = lshr i32 %17, 9
  %19 = and i32 %18, 1
  %20 = icmp ne i32 %19, 0
  br i1 %20, label %21, label %29

21:                                               ; preds = %12
  %22 = load ptr, ptr %5, align 8
  %23 = getelementptr inbounds %struct.Curl_cfilter, ptr %22, i32 0, i32 3
  %24 = load ptr, ptr %23, align 8
  %25 = getelementptr inbounds %struct.connectdata, ptr %24, i32 0, i32 9
  %26 = getelementptr inbounds %struct.hostname, ptr %25, i32 0, i32 2
  %27 = load ptr, ptr %26, align 8
  %28 = load ptr, ptr %6, align 8
  store ptr %27, ptr %28, align 8
  br label %50

29:                                               ; preds = %12
  %30 = load ptr, ptr %5, align 8
  %31 = getelementptr inbounds %struct.Curl_cfilter, ptr %30, i32 0, i32 4
  %32 = load i32, ptr %31, align 8
  %33 = icmp eq i32 %32, 1
  br i1 %33, label %34, label %41

34:                                               ; preds = %29
  %35 = load ptr, ptr %5, align 8
  %36 = getelementptr inbounds %struct.Curl_cfilter, ptr %35, i32 0, i32 3
  %37 = load ptr, ptr %36, align 8
  %38 = getelementptr inbounds %struct.connectdata, ptr %37, i32 0, i32 8
  %39 = load ptr, ptr %38, align 8
  %40 = load ptr, ptr %6, align 8
  store ptr %39, ptr %40, align 8
  br label %49

41:                                               ; preds = %29
  %42 = load ptr, ptr %5, align 8
  %43 = getelementptr inbounds %struct.Curl_cfilter, ptr %42, i32 0, i32 3
  %44 = load ptr, ptr %43, align 8
  %45 = getelementptr inbounds %struct.connectdata, ptr %44, i32 0, i32 6
  %46 = getelementptr inbounds %struct.hostname, ptr %45, i32 0, i32 2
  %47 = load ptr, ptr %46, align 8
  %48 = load ptr, ptr %6, align 8
  store ptr %47, ptr %48, align 8
  br label %49

49:                                               ; preds = %41, %34
  br label %50

50:                                               ; preds = %49, %21
  %51 = load ptr, ptr %5, align 8
  %52 = getelementptr inbounds %struct.Curl_cfilter, ptr %51, i32 0, i32 4
  %53 = load i32, ptr %52, align 8
  %54 = icmp eq i32 %53, 1
  br i1 %54, label %55, label %63

55:                                               ; preds = %50
  %56 = load ptr, ptr %5, align 8
  %57 = getelementptr inbounds %struct.Curl_cfilter, ptr %56, i32 0, i32 3
  %58 = load ptr, ptr %57, align 8
  %59 = getelementptr inbounds %struct.connectdata, ptr %58, i32 0, i32 50
  %60 = load i16, ptr %59, align 2
  %61 = zext i16 %60 to i32
  %62 = load ptr, ptr %7, align 8
  store i32 %61, ptr %62, align 4
  br label %87

63:                                               ; preds = %50
  %64 = load ptr, ptr %5, align 8
  %65 = getelementptr inbounds %struct.Curl_cfilter, ptr %64, i32 0, i32 3
  %66 = load ptr, ptr %65, align 8
  %67 = getelementptr inbounds %struct.connectdata, ptr %66, i32 0, i32 27
  %68 = load i32, ptr %67, align 8
  %69 = lshr i32 %68, 10
  %70 = and i32 %69, 1
  %71 = icmp ne i32 %70, 0
  br i1 %71, label %72, label %79

72:                                               ; preds = %63
  %73 = load ptr, ptr %5, align 8
  %74 = getelementptr inbounds %struct.Curl_cfilter, ptr %73, i32 0, i32 3
  %75 = load ptr, ptr %74, align 8
  %76 = getelementptr inbounds %struct.connectdata, ptr %75, i32 0, i32 47
  %77 = load i32, ptr %76, align 8
  %78 = load ptr, ptr %7, align 8
  store i32 %77, ptr %78, align 4
  br label %86

79:                                               ; preds = %63
  %80 = load ptr, ptr %5, align 8
  %81 = getelementptr inbounds %struct.Curl_cfilter, ptr %80, i32 0, i32 3
  %82 = load ptr, ptr %81, align 8
  %83 = getelementptr inbounds %struct.connectdata, ptr %82, i32 0, i32 46
  %84 = load i32, ptr %83, align 4
  %85 = load ptr, ptr %7, align 8
  store i32 %84, ptr %85, align 4
  br label %86

86:                                               ; preds = %79, %72
  br label %87

87:                                               ; preds = %86, %55
  %88 = load ptr, ptr %6, align 8
  %89 = load ptr, ptr %88, align 8
  %90 = load ptr, ptr %5, align 8
  %91 = getelementptr inbounds %struct.Curl_cfilter, ptr %90, i32 0, i32 3
  %92 = load ptr, ptr %91, align 8
  %93 = getelementptr inbounds %struct.connectdata, ptr %92, i32 0, i32 6
  %94 = getelementptr inbounds %struct.hostname, ptr %93, i32 0, i32 2
  %95 = load ptr, ptr %94, align 8
  %96 = icmp ne ptr %89, %95
  br i1 %96, label %97, label %104

97:                                               ; preds = %87
  %98 = load ptr, ptr %6, align 8
  %99 = load ptr, ptr %98, align 8
  %100 = call ptr @strchr(ptr noundef %99, i32 noundef 58) #3
  %101 = icmp ne ptr %100, null
  %102 = load ptr, ptr %8, align 8
  %103 = zext i1 %101 to i8
  store i8 %103, ptr %102, align 1
  br label %115

104:                                              ; preds = %87
  %105 = load ptr, ptr %5, align 8
  %106 = getelementptr inbounds %struct.Curl_cfilter, ptr %105, i32 0, i32 3
  %107 = load ptr, ptr %106, align 8
  %108 = getelementptr inbounds %struct.connectdata, ptr %107, i32 0, i32 27
  %109 = load i32, ptr %108, align 8
  %110 = lshr i32 %109, 11
  %111 = and i32 %110, 1
  %112 = icmp ne i32 %111, 0
  %113 = load ptr, ptr %8, align 8
  %114 = zext i1 %112 to i8
  store i8 %114, ptr %113, align 1
  br label %115

115:                                              ; preds = %104, %97
  ret i32 0
}