; Function Attrs: mustprogress nofree nounwind willreturn memory(read, argmem: readwrite, inaccessiblemem: none) uwtable
define dso_local noundef i32 @Curl_http_proxy_get_destination(ptr noundef readonly captures(none) %0, ptr noundef captures(none) initializes((0, 8)) %1, ptr noundef writeonly captures(none) initializes((0, 4)) %2, ptr noundef writeonly captures(none) initializes((0, 1)) %3) local_unnamed_addr #0 {
  %5 = getelementptr inbounds nuw i8, ptr %0, i64 24
  %6 = load ptr, ptr %5, align 8
  %7 = getelementptr inbounds nuw i8, ptr %6, i64 672
  %8 = load i32, ptr %7, align 8
  %9 = and i32 %8, 512
  %.not = icmp eq i32 %9, 0
  br i1 %.not, label %10, label %14

10:                                               ; preds = %4
  %11 = getelementptr inbounds nuw i8, ptr %0, i64 32
  %12 = load i32, ptr %11, align 8
  %13 = icmp eq i32 %12, 1
  %. = select i1 %13, i64 104, i64 80
  br label %14

14:                                               ; preds = %10, %4
  %.sink = phi i64 [ 128, %4 ], [ %., %10 ]
  %15 = getelementptr inbounds nuw i8, ptr %6, i64 %.sink
  %16 = load ptr, ptr %15, align 8
  store ptr %16, ptr %1, align 8
  %17 = getelementptr inbounds nuw i8, ptr %0, i64 32
  %18 = load i32, ptr %17, align 8
  %19 = icmp eq i32 %18, 1
  %20 = load ptr, ptr %5, align 8
  br i1 %19, label %21, label %25

21:                                               ; preds = %14
  %22 = getelementptr inbounds nuw i8, ptr %20, i64 1146
  %23 = load i16, ptr %22, align 2
  %24 = zext i16 %23 to i32
  br label %35

25:                                               ; preds = %14
  %26 = getelementptr inbounds nuw i8, ptr %20, i64 672
  %27 = load i32, ptr %26, align 8
  %28 = and i32 %27, 1024
  %.not22 = icmp eq i32 %28, 0
  br i1 %.not22, label %32, label %29

29:                                               ; preds = %25
  %30 = getelementptr inbounds nuw i8, ptr %20, i64 1136
  %31 = load i32, ptr %30, align 8
  br label %35

32:                                               ; preds = %25
  %33 = getelementptr inbounds nuw i8, ptr %20, i64 1132
  %34 = load i32, ptr %33, align 4
  br label %35

35:                                               ; preds = %29, %32, %21
  %.sink25 = phi i32 [ %31, %29 ], [ %34, %32 ], [ %24, %21 ]
  store i32 %.sink25, ptr %2, align 4
  %36 = load ptr, ptr %1, align 8
  %37 = load ptr, ptr %5, align 8
  %38 = getelementptr inbounds nuw i8, ptr %37, i64 80
  %39 = load ptr, ptr %38, align 8
  %.not23 = icmp eq ptr %36, %39
  br i1 %.not23, label %44, label %40

40:                                               ; preds = %35
  %41 = tail call ptr @strchr(ptr noundef nonnull dereferenceable(1) %36, i32 noundef 58) #4
  %42 = icmp ne ptr %41, null
  %43 = zext i1 %42 to i8
  br label %50

44:                                               ; preds = %35
  %45 = getelementptr inbounds nuw i8, ptr %37, i64 672
  %46 = load i32, ptr %45, align 8
  %47 = lshr i32 %46, 11
  %48 = trunc i32 %47 to i8
  %49 = and i8 %48, 1
  br label %50

50:                                               ; preds = %44, %40
  %storemerge = phi i8 [ %49, %44 ], [ %43, %40 ]
  store i8 %storemerge, ptr %3, align 1
  ret i32 0
}